target datalayout = "e-m:e-p270:32:32-p271:32:32-p272:64:64-i64:64-i128:128-f80:128-n8:16:32:64-S128"
target triple = "x86_64-pc-linux-gnu"

@hf_nt_acct_ctrl = internal global i32 0, align 4
@ett_nt_acct_ctrl = internal global i32 0, align 4

; Function Attrs: null_pointer_is_valid sspstrong uwtable
define hidden i32 @dissect_ndr_nt_acct_ctrl(ptr noundef %0, i32 noundef %1, ptr noundef %2, ptr noundef %3, ptr noundef %4, ptr noundef %5) #0 {
  %7 = alloca ptr, align 8
  %8 = alloca i32, align 4
  %9 = alloca ptr, align 8
  %10 = alloca ptr, align 8
  %11 = alloca ptr, align 8
  %12 = alloca ptr, align 8
  %13 = alloca i32, align 4
  store ptr %0, ptr %7, align 8
  store i32 %1, ptr %8, align 4
  store ptr %2, ptr %9, align 8
  store ptr %3, ptr %10, align 8
  store ptr %4, ptr %11, align 8
  store ptr %5, ptr %12, align 8
  call void @llvm.lifetime.start.p0(i64 4, ptr %13) #13
  %14 = load ptr, ptr %7, align 8
  %15 = load i32, ptr %8, align 4
  %16 = load ptr, ptr %9, align 8
  %17 = load ptr, ptr %11, align 8
  %18 = load ptr, ptr %12, align 8
  %19 = call i32 @dissect_ndr_uint32(ptr noundef %14, i32 noundef %15, ptr noundef %16, ptr noundef null, ptr noundef %17, ptr noundef %18, i32 noundef -1, ptr noundef %13)
  store i32 %19, ptr %8, align 4
  %20 = load ptr, ptr %10, align 8
  %21 = load ptr, ptr %7, align 8
  %22 = load i32, ptr %8, align 4
  %23 = sub i32 %22, 4
  %24 = load i32, ptr @hf_nt_acct_ctrl, align 4
  %25 = load i32, ptr @ett_nt_acct_ctrl, align 4
  %26 = load i32, ptr %13, align 4
  %27 = zext i32 %26 to i64
  %28 = call ptr @proto_tree_add_bitmask_value_with_flags(ptr noundef %20, ptr noundef %21, i32 noundef %23, i32 noundef %24, i32 noundef %25, ptr noundef @dissect_ndr_nt_acct_ctrl.flags, i64 noundef %27, i32 noundef 1)
  %29 = load i32, ptr %8, align 4
  call void @llvm.lifetime.end.p0(i64 4, ptr %13) #13
  ret i32 %29
}