; Function Attrs: null_pointer_is_valid sspstrong uwtable
define hidden i32 @dissect_ndr_nt_acct_ctrl(ptr noundef %0, i32 noundef %1, ptr noundef %2, ptr noundef %3, ptr noundef %4, ptr noundef %5) local_unnamed_addr #0 {
  %7 = alloca i32, align 4
  call void @llvm.lifetime.start.p0(i64 4, ptr nonnull %7) #9
  %8 = call i32 @dissect_ndr_uint32(ptr noundef %0, i32 noundef %1, ptr noundef %2, ptr noundef null, ptr noundef %4, ptr noundef %5, i32 noundef -1, ptr noundef nonnull %7)
  %9 = add i32 %8, -4
  %10 = load i32, ptr @hf_nt_acct_ctrl, align 4
  %11 = load i32, ptr @ett_nt_acct_ctrl, align 4
  %12 = load i32, ptr %7, align 4
  %13 = zext i32 %12 to i64
  %14 = call ptr @proto_tree_add_bitmask_value_with_flags(ptr noundef %3, ptr noundef %0, i32 noundef %9, i32 noundef %10, i32 noundef %11, ptr noundef nonnull @dissect_ndr_nt_acct_ctrl.flags, i64 noundef %13, i32 noundef 1)
  call void @llvm.lifetime.end.p0(i64 4, ptr nonnull %7) #9
  ret i32 %8
}